target datalayout = "e-m:e-p270:32:32-p271:32:32-p272:64:64-i64:64-i128:128-f80:128-n8:16:32:64-S128"
target triple = "x86_64-pc-linux-gnu"

%struct.AVBSFContext = type { ptr, ptr, ptr, ptr, ptr, %struct.AVRational, %struct.AVRational }
%struct.AVRational = type { i32, i32 }
%struct.AV1FSplitContext = type { ptr, ptr, %struct.CodedBitstreamFragment, i32, i32, i32, i32 }
%struct.CodedBitstreamFragment = type { ptr, i64, i64, ptr, i32, i32, ptr }
%struct.CodedBitstreamContext = type { ptr, ptr, ptr, ptr, i32, i32, i32, ptr, ptr, ptr, ptr, i64 }
%struct.AVCodecParameters = type { i32, i32, i32, ptr, i32, ptr, i32, i32, i64, i32, i32, i32, i32, i32, i32, %struct.AVRational, %struct.AVRational, i32, i32, i32, i32, i32, i32, i32, %struct.AVChannelLayout, i32, i32, i32, i32, i32, i32 }
%struct.AVChannelLayout = type { i32, i32, %union.anon, ptr }
%union.anon = type { i64 }

@decompose_unit_types = internal constant [5 x i32] [i32 2, i32 1, i32 3, i32 4, i32 6], align 16
@.str.1 = private unnamed_addr constant [28 x i8] c"Failed to parse extradata.\0A\00", align 1

; Function Attrs: nounwind uwtable
define internal i32 @av1_frame_split_init(ptr noundef %0) #0 {
  %2 = alloca i32, align 4
  %3 = alloca ptr, align 8
  %4 = alloca ptr, align 8
  %5 = alloca ptr, align 8
  %6 = alloca i32, align 4
  %7 = alloca i32, align 4
  store ptr %0, ptr %3, align 8, !tbaa !4
  call void @llvm.lifetime.start.p0(i64 8, ptr %4) #4
  %8 = load ptr, ptr %3, align 8, !tbaa !4
  %9 = getelementptr inbounds nuw %struct.AVBSFContext, ptr %8, i32 0, i32 2
  %10 = load ptr, ptr %9, align 8, !tbaa !9
  store ptr %10, ptr %4, align 8, !tbaa !16
  call void @llvm.lifetime.start.p0(i64 8, ptr %5) #4
  %11 = load ptr, ptr %4, align 8, !tbaa !16
  %12 = getelementptr inbounds nuw %struct.AV1FSplitContext, ptr %11, i32 0, i32 2
  store ptr %12, ptr %5, align 8, !tbaa !18
  call void @llvm.lifetime.start.p0(i64 4, ptr %6) #4
  %13 = call ptr @av_packet_alloc()
  %14 = load ptr, ptr %4, align 8, !tbaa !16
  %15 = getelementptr inbounds nuw %struct.AV1FSplitContext, ptr %14, i32 0, i32 0
  store ptr %13, ptr %15, align 8, !tbaa !20
  %16 = load ptr, ptr %4, align 8, !tbaa !16
  %17 = getelementptr inbounds nuw %struct.AV1FSplitContext, ptr %16, i32 0, i32 0
  %18 = load ptr, ptr %17, align 8, !tbaa !20
  %19 = icmp ne ptr %18, null
  br i1 %19, label %21, label %20

20:                                               ; preds = %1
  store i32 -12, ptr %2, align 4
  store i32 1, ptr %7, align 4
  br label %61

21:                                               ; preds = %1
  %22 = load ptr, ptr %4, align 8, !tbaa !16
  %23 = getelementptr inbounds nuw %struct.AV1FSplitContext, ptr %22, i32 0, i32 1
  %24 = load ptr, ptr %3, align 8, !tbaa !4
  %25 = call i32 @ff_cbs_init(ptr noundef %23, i32 noundef 225, ptr noundef %24)
  store i32 %25, ptr %6, align 4, !tbaa !29
  %26 = load i32, ptr %6, align 4, !tbaa !29
  %27 = icmp slt i32 %26, 0
  br i1 %27, label %28, label %30

28:                                               ; preds = %21
  %29 = load i32, ptr %6, align 4, !tbaa !29
  store i32 %29, ptr %2, align 4
  store i32 1, ptr %7, align 4
  br label %61

30:                                               ; preds = %21
  %31 = load ptr, ptr %4, align 8, !tbaa !16
  %32 = getelementptr inbounds nuw %struct.AV1FSplitContext, ptr %31, i32 0, i32 1
  %33 = load ptr, ptr %32, align 8, !tbaa !30
  %34 = getelementptr inbounds nuw %struct.CodedBitstreamContext, ptr %33, i32 0, i32 3
  store ptr @decompose_unit_types, ptr %34, align 8, !tbaa !31
  %35 = load ptr, ptr %4, align 8, !tbaa !16
  %36 = getelementptr inbounds nuw %struct.AV1FSplitContext, ptr %35, i32 0, i32 1
  %37 = load ptr, ptr %36, align 8, !tbaa !30
  %38 = getelementptr inbounds nuw %struct.CodedBitstreamContext, ptr %37, i32 0, i32 4
  store i32 5, ptr %38, align 8, !tbaa !35
  %39 = load ptr, ptr %3, align 8, !tbaa !4
  %40 = getelementptr inbounds nuw %struct.AVBSFContext, ptr %39, i32 0, i32 3
  %41 = load ptr, ptr %40, align 8, !tbaa !36
  %42 = getelementptr inbounds nuw %struct.AVCodecParameters, ptr %41, i32 0, i32 4
  %43 = load i32, ptr %42, align 8, !tbaa !37
  %44 = icmp ne i32 %43, 0
  br i1 %44, label %46, label %45

45:                                               ; preds = %30
  store i32 0, ptr %2, align 4
  store i32 1, ptr %7, align 4
  br label %61

46:                                               ; preds = %30
  %47 = load ptr, ptr %4, align 8, !tbaa !16
  %48 = getelementptr inbounds nuw %struct.AV1FSplitContext, ptr %47, i32 0, i32 1
  %49 = load ptr, ptr %48, align 8, !tbaa !30
  %50 = load ptr, ptr %5, align 8, !tbaa !18
  %51 = load ptr, ptr %3, align 8, !tbaa !4
  %52 = getelementptr inbounds nuw %struct.AVBSFContext, ptr %51, i32 0, i32 3
  %53 = load ptr, ptr %52, align 8, !tbaa !36
  %54 = call i32 @ff_cbs_read_extradata(ptr noundef %49, ptr noundef %50, ptr noundef %53)
  store i32 %54, ptr %6, align 4, !tbaa !29
  %55 = load i32, ptr %6, align 4, !tbaa !29
  %56 = icmp slt i32 %55, 0
  br i1 %56, label %57, label %59

57:                                               ; preds = %46
  %58 = load ptr, ptr %3, align 8, !tbaa !4
  call void (ptr, i32, ptr, ...) @av_log(ptr noundef %58, i32 noundef 24, ptr noundef @.str.1)
  br label %59

59:                                               ; preds = %57, %46
  %60 = load ptr, ptr %5, align 8, !tbaa !18
  call void @ff_cbs_fragment_reset(ptr noundef %60)
  store i32 0, ptr %2, align 4
  store i32 1, ptr %7, align 4
  br label %61

61:                                               ; preds = %59, %45, %28, %20
  call void @llvm.lifetime.end.p0(i64 4, ptr %6) #4
  call void @llvm.lifetime.end.p0(i64 8, ptr %5) #4
  call void @llvm.lifetime.end.p0(i64 8, ptr %4) #4
  %62 = load i32, ptr %2, align 4
  ret i32 %62
}