; Function Attrs: nounwind uwtable
define internal range(i32 -2147483648, 1) i32 @av1_frame_split_init(ptr noundef %0) #0 {
  %2 = getelementptr inbounds nuw i8, ptr %0, i64 16
  %3 = load ptr, ptr %2, align 8, !tbaa !4
  %4 = getelementptr inbounds nuw i8, ptr %3, i64 16
  %5 = tail call ptr @av_packet_alloc() #3
  store ptr %5, ptr %3, align 8, !tbaa !14
  %.not = icmp eq ptr %5, null
  br i1 %.not, label %23, label %6

6:                                                ; preds = %1
  %7 = getelementptr inbounds nuw i8, ptr %3, i64 8
  %8 = tail call i32 @ff_cbs_init(ptr noundef nonnull %7, i32 noundef 225, ptr noundef nonnull %0) #3
  %9 = icmp slt i32 %8, 0
  br i1 %9, label %23, label %10

10:                                               ; preds = %6
  %11 = load ptr, ptr %7, align 8, !tbaa !23
  %12 = getelementptr inbounds nuw i8, ptr %11, i64 24
  store ptr @decompose_unit_types, ptr %12, align 8, !tbaa !24
  %13 = getelementptr inbounds nuw i8, ptr %11, i64 32
  store i32 5, ptr %13, align 8, !tbaa !28
  %14 = getelementptr inbounds nuw i8, ptr %0, i64 24
  %15 = load ptr, ptr %14, align 8, !tbaa !29
  %16 = getelementptr inbounds nuw i8, ptr %15, i64 24
  %17 = load i32, ptr %16, align 8, !tbaa !30
  %.not18 = icmp eq i32 %17, 0
  br i1 %.not18, label %23, label %18

18:                                               ; preds = %10
  %19 = tail call i32 @ff_cbs_read_extradata(ptr noundef nonnull %11, ptr noundef nonnull %4, ptr noundef nonnull %15) #3
  %20 = icmp slt i32 %19, 0
  br i1 %20, label %21, label %22

21:                                               ; preds = %18
  tail call void (ptr, i32, ptr, ...) @av_log(ptr noundef nonnull %0, i32 noundef 24, ptr noundef nonnull @.str.1) #3
  br label %22

22:                                               ; preds = %21, %18
  tail call void @ff_cbs_fragment_reset(ptr noundef nonnull %4) #3
  br label %23

23:                                               ; preds = %10, %6, %1, %22
  %.0 = phi i32 [ 0, %22 ], [ -12, %1 ], [ %8, %6 ], [ 0, %10 ]
  ret i32 %.0
}